target datalayout = "e-m:e-p270:32:32-p271:32:32-p272:64:64-i64:64-i128:128-f80:128-n8:16:32:64-S128"
target triple = "x86_64-pc-linux-gnu"

%struct.H5FD_multi_t = type { %struct.H5FD_t, %struct.H5FD_multi_fapl_t, [7 x i64], [7 x ptr], [7 x i64], i32, ptr }
%struct.H5FD_t = type { i64, ptr, i64, i32, i64, i64, i64, i64, i64, i8 }
%struct.H5FD_multi_fapl_t = type { [7 x i32], [7 x i64], [7 x ptr], [7 x i64], i8 }

@.str.1 = private unnamed_addr constant [103 x i8] c"generated/home/dtcxzyw/WorkSpace/Projects/compilers/llvm-opt-benchmark/bench/hdf5/hdf5/src/H5FDmulti.c\00", align 1
@H5_libinit_g = external global i8, align 1
@H5_libterm_g = external global i8, align 1
@H5E_ERR_CLS_g = external global i64, align 8
@H5E_INTERNAL_g = external global i64, align 8
@H5E_BADVALUE_g = external global i64, align 8
@__func__.H5FD_multi_close = private unnamed_addr constant [17 x i8] c"H5FD_multi_close\00", align 1
@.str.33 = private unnamed_addr constant [27 x i8] c"error closing member files\00", align 1

; Function Attrs: nounwind uwtable
define internal i32 @H5FD_multi_close(ptr noundef %0) #0 {
  %2 = alloca i32, align 4
  %3 = alloca ptr, align 8
  %4 = alloca ptr, align 8
  %5 = alloca i32, align 4
  %6 = alloca i32, align 4
  %7 = alloca i32, align 4
  %8 = alloca i32, align 4
  store ptr %0, ptr %3, align 8, !tbaa !3
  call void @llvm.lifetime.start.p0(i64 8, ptr %4) #9
  %9 = load ptr, ptr %3, align 8, !tbaa !3
  store ptr %9, ptr %4, align 8, !tbaa !8
  call void @llvm.lifetime.start.p0(i64 4, ptr %5) #9
  store i32 0, ptr %5, align 4, !tbaa !10
  %10 = call i32 @H5Eclear2(i64 noundef 0)
  call void @llvm.lifetime.start.p0(i64 4, ptr %6) #9
  store i32 0, ptr %6, align 4, !tbaa !10
  br label %11

11:                                               ; preds = %42, %1
  %12 = load i32, ptr %6, align 4, !tbaa !10
  %13 = icmp slt i32 %12, 7
  br i1 %13, label %14, label %45

14:                                               ; preds = %11
  %15 = load ptr, ptr %4, align 8, !tbaa !8
  %16 = getelementptr inbounds nuw %struct.H5FD_multi_t, ptr %15, i32 0, i32 3
  %17 = load i32, ptr %6, align 4, !tbaa !10
  %18 = sext i32 %17 to i64
  %19 = getelementptr inbounds [7 x ptr], ptr %16, i64 0, i64 %18
  %20 = load ptr, ptr %19, align 8, !tbaa !3
  %21 = icmp ne ptr %20, null
  br i1 %21, label %22, label %41

22:                                               ; preds = %14
  %23 = load ptr, ptr %4, align 8, !tbaa !8
  %24 = getelementptr inbounds nuw %struct.H5FD_multi_t, ptr %23, i32 0, i32 3
  %25 = load i32, ptr %6, align 4, !tbaa !10
  %26 = sext i32 %25 to i64
  %27 = getelementptr inbounds [7 x ptr], ptr %24, i64 0, i64 %26
  %28 = load ptr, ptr %27, align 8, !tbaa !3
  %29 = call i32 @H5FDclose(ptr noundef %28)
  %30 = icmp slt i32 %29, 0
  br i1 %30, label %31, label %34

31:                                               ; preds = %22
  %32 = load i32, ptr %5, align 4, !tbaa !10
  %33 = add nsw i32 %32, 1
  store i32 %33, ptr %5, align 4, !tbaa !10
  br label %40

34:                                               ; preds = %22
  %35 = load ptr, ptr %4, align 8, !tbaa !8
  %36 = getelementptr inbounds nuw %struct.H5FD_multi_t, ptr %35, i32 0, i32 3
  %37 = load i32, ptr %6, align 4, !tbaa !10
  %38 = sext i32 %37 to i64
  %39 = getelementptr inbounds [7 x ptr], ptr %36, i64 0, i64 %38
  store ptr null, ptr %39, align 8, !tbaa !3
  br label %40

40:                                               ; preds = %34, %31
  br label %41

41:                                               ; preds = %40, %14
  br label %42

42:                                               ; preds = %41
  %43 = load i32, ptr %6, align 4, !tbaa !10
  %44 = add nsw i32 %43, 1
  store i32 %44, ptr %6, align 4, !tbaa !10
  br label %11, !llvm.loop !56

45:                                               ; preds = %11
  call void @llvm.lifetime.end.p0(i64 4, ptr %6) #9
  %46 = load i32, ptr %5, align 4, !tbaa !10
  %47 = icmp ne i32 %46, 0
  br i1 %47, label %48, label %110

48:                                               ; preds = %45
  br label %49

49:                                               ; preds = %48
  %50 = load i8, ptr @H5_libinit_g, align 1, !tbaa !22, !range !24, !noundef !25
  %51 = trunc i8 %50 to i1
  br i1 %51, label %56, label %52

52:                                               ; preds = %49
  %53 = load i8, ptr @H5_libterm_g, align 1, !tbaa !22, !range !24, !noundef !25
  %54 = trunc i8 %53 to i1
  %55 = xor i1 %54, true
  br label %56

56:                                               ; preds = %52, %49
  %57 = phi i1 [ false, %49 ], [ %55, %52 ]
  %58 = xor i1 %57, true
  %59 = xor i1 %58, true
  %60 = zext i1 %59 to i32
  %61 = sext i32 %60 to i64
  %62 = call i64 @llvm.expect.i64(i64 %61, i64 0)
  %63 = icmp ne i64 %62, 0
  br i1 %63, label %64, label %66

64:                                               ; preds = %56
  %65 = call i32 @H5open()
  br label %67

66:                                               ; preds = %56
  br label %67

67:                                               ; preds = %66, %64
  %68 = load i64, ptr @H5E_ERR_CLS_g, align 8, !tbaa !12
  %69 = load i8, ptr @H5_libinit_g, align 1, !tbaa !22, !range !24, !noundef !25
  %70 = trunc i8 %69 to i1
  br i1 %70, label %75, label %71

71:                                               ; preds = %67
  %72 = load i8, ptr @H5_libterm_g, align 1, !tbaa !22, !range !24, !noundef !25
  %73 = trunc i8 %72 to i1
  %74 = xor i1 %73, true
  br label %75

75:                                               ; preds = %71, %67
  %76 = phi i1 [ false, %67 ], [ %74, %71 ]
  %77 = xor i1 %76, true
  %78 = xor i1 %77, true
  %79 = zext i1 %78 to i32
  %80 = sext i32 %79 to i64
  %81 = call i64 @llvm.expect.i64(i64 %80, i64 0)
  %82 = icmp ne i64 %81, 0
  br i1 %82, label %83, label %85

83:                                               ; preds = %75
  %84 = call i32 @H5open()
  br label %86

85:                                               ; preds = %75
  br label %86

86:                                               ; preds = %85, %83
  %87 = load i64, ptr @H5E_INTERNAL_g, align 8, !tbaa !12
  %88 = load i8, ptr @H5_libinit_g, align 1, !tbaa !22, !range !24, !noundef !25
  %89 = trunc i8 %88 to i1
  br i1 %89, label %94, label %90

90:                                               ; preds = %86
  %91 = load i8, ptr @H5_libterm_g, align 1, !tbaa !22, !range !24, !noundef !25
  %92 = trunc i8 %91 to i1
  %93 = xor i1 %92, true
  br label %94

94:                                               ; preds = %90, %86
  %95 = phi i1 [ false, %86 ], [ %93, %90 ]
  %96 = xor i1 %95, true
  %97 = xor i1 %96, true
  %98 = zext i1 %97 to i32
  %99 = sext i32 %98 to i64
  %100 = call i64 @llvm.expect.i64(i64 %99, i64 0)
  %101 = icmp ne i64 %100, 0
  br i1 %101, label %102, label %104

102:                                              ; preds = %94
  %103 = call i32 @H5open()
  br label %105

104:                                              ; preds = %94
  br label %105

105:                                              ; preds = %104, %102
  %106 = load i64, ptr @H5E_BADVALUE_g, align 8, !tbaa !12
  %107 = call i32 (i64, ptr, ptr, i32, i64, i64, i64, ptr, ...) @H5Epush2(i64 noundef 0, ptr noundef @.str.1, ptr noundef @__func__.H5FD_multi_close, i32 noundef 1136, i64 noundef %68, i64 noundef %87, i64 noundef %106, ptr noundef @.str.33)
  store i32 -1, ptr %2, align 4
  store i32 1, ptr %7, align 4
  br label %158

108:                                              ; No predecessors!
  br label %109

109:                                              ; preds = %108
  br label %110

110:                                              ; preds = %109, %45
  call void @llvm.lifetime.start.p0(i64 4, ptr %8) #9
  store i32 0, ptr %8, align 4, !tbaa !10
  br label %111

111:                                              ; preds = %150, %110
  %112 = load i32, ptr %8, align 4, !tbaa !10
  %113 = icmp slt i32 %112, 7
  br i1 %113, label %114, label %153

114:                                              ; preds = %111
  %115 = load ptr, ptr %4, align 8, !tbaa !8
  %116 = getelementptr inbounds nuw %struct.H5FD_multi_t, ptr %115, i32 0, i32 1
  %117 = getelementptr inbounds nuw %struct.H5FD_multi_fapl_t, ptr %116, i32 0, i32 1
  %118 = load i32, ptr %8, align 4, !tbaa !10
  %119 = sext i32 %118 to i64
  %120 = getelementptr inbounds [7 x i64], ptr %117, i64 0, i64 %119
  %121 = load i64, ptr %120, align 8, !tbaa !12
  %122 = icmp sge i64 %121, 0
  br i1 %122, label %123, label %132

123:                                              ; preds = %114
  %124 = load ptr, ptr %4, align 8, !tbaa !8
  %125 = getelementptr inbounds nuw %struct.H5FD_multi_t, ptr %124, i32 0, i32 1
  %126 = getelementptr inbounds nuw %struct.H5FD_multi_fapl_t, ptr %125, i32 0, i32 1
  %127 = load i32, ptr %8, align 4, !tbaa !10
  %128 = sext i32 %127 to i64
  %129 = getelementptr inbounds [7 x i64], ptr %126, i64 0, i64 %128
  %130 = load i64, ptr %129, align 8, !tbaa !12
  %131 = call i32 @H5Idec_ref(i64 noundef %130)
  br label %132

132:                                              ; preds = %123, %114
  %133 = load ptr, ptr %4, align 8, !tbaa !8
  %134 = getelementptr inbounds nuw %struct.H5FD_multi_t, ptr %133, i32 0, i32 1
  %135 = getelementptr inbounds nuw %struct.H5FD_multi_fapl_t, ptr %134, i32 0, i32 2
  %136 = load i32, ptr %8, align 4, !tbaa !10
  %137 = sext i32 %136 to i64
  %138 = getelementptr inbounds [7 x ptr], ptr %135, i64 0, i64 %137
  %139 = load ptr, ptr %138, align 8, !tbaa !16
  %140 = icmp ne ptr %139, null
  br i1 %140, label %141, label %149

141:                                              ; preds = %132
  %142 = load ptr, ptr %4, align 8, !tbaa !8
  %143 = getelementptr inbounds nuw %struct.H5FD_multi_t, ptr %142, i32 0, i32 1
  %144 = getelementptr inbounds nuw %struct.H5FD_multi_fapl_t, ptr %143, i32 0, i32 2
  %145 = load i32, ptr %8, align 4, !tbaa !10
  %146 = sext i32 %145 to i64
  %147 = getelementptr inbounds [7 x ptr], ptr %144, i64 0, i64 %146
  %148 = load ptr, ptr %147, align 8, !tbaa !16
  call void @free(ptr noundef %148) #9
  br label %149

149:                                              ; preds = %141, %132
  br label %150

150:                                              ; preds = %149
  %151 = load i32, ptr %8, align 4, !tbaa !10
  %152 = add nsw i32 %151, 1
  store i32 %152, ptr %8, align 4, !tbaa !10
  br label %111, !llvm.loop !57

153:                                              ; preds = %111
  call void @llvm.lifetime.end.p0(i64 4, ptr %8) #9
  %154 = load ptr, ptr %4, align 8, !tbaa !8
  %155 = getelementptr inbounds nuw %struct.H5FD_multi_t, ptr %154, i32 0, i32 6
  %156 = load ptr, ptr %155, align 8, !tbaa !54
  call void @free(ptr noundef %156) #9
  %157 = load ptr, ptr %4, align 8, !tbaa !8
  call void @free(ptr noundef %157) #9
  store i32 0, ptr %2, align 4
  store i32 1, ptr %7, align 4
  br label %158

158:                                              ; preds = %153, %105
  call void @llvm.lifetime.end.p0(i64 4, ptr %5) #9
  call void @llvm.lifetime.end.p0(i64 8, ptr %4) #9
  %159 = load i32, ptr %2, align 4
  ret i32 %159
}