; Function Attrs: nounwind uwtable
define internal range(i32 -1, 1) i32 @H5FD_multi_close(ptr noundef captures(none) %0) #0 {
  %2 = tail call i32 @H5Eclear2(i64 noundef 0) #15
  %3 = getelementptr inbounds nuw i8, ptr %0, i64 344
  br label %4

4:                                                ; preds = %1, %13
  %indvars.iv = phi i64 [ 0, %1 ], [ %indvars.iv.next, %13 ]
  %.02431 = phi i32 [ 0, %1 ], [ %.1, %13 ]
  %5 = getelementptr inbounds nuw [7 x ptr], ptr %3, i64 0, i64 %indvars.iv
  %6 = load ptr, ptr %5, align 8, !tbaa !15
  %.not30 = icmp eq ptr %6, null
  br i1 %.not30, label %13, label %7

7:                                                ; preds = %4
  %8 = tail call i32 @H5FDclose(ptr noundef nonnull %6) #15
  %9 = icmp slt i32 %8, 0
  br i1 %9, label %10, label %12

10:                                               ; preds = %7
  %11 = add nsw i32 %.02431, 1
  br label %13

12:                                               ; preds = %7
  store ptr null, ptr %5, align 8, !tbaa !15
  br label %13

13:                                               ; preds = %4, %12, %10
  %.1 = phi i32 [ %11, %10 ], [ %.02431, %12 ], [ %.02431, %4 ]
  %indvars.iv.next = add nuw nsw i64 %indvars.iv, 1
  %exitcond.not = icmp eq i64 %indvars.iv.next, 7
  br i1 %exitcond.not, label %14, label %4, !llvm.loop !50

14:                                               ; preds = %13
  %.not = icmp eq i32 %.1, 0
  br i1 %.not, label %.preheader, label %17

.preheader:                                       ; preds = %14
  %15 = getelementptr inbounds nuw i8, ptr %0, i64 112
  %16 = getelementptr inbounds nuw i8, ptr %0, i64 168
  br label %46

17:                                               ; preds = %14
  %18 = load i8, ptr @H5_libinit_g, align 1, !tbaa !18, !range !20, !noundef !21
  %19 = trunc nuw i8 %18 to i1
  %20 = load i8, ptr @H5_libterm_g, align 1, !range !20
  %21 = trunc nuw i8 %20 to i1
  %22 = select i1 %19, i1 true, i1 %21
  br i1 %22, label %25, label %23, !prof !22

23:                                               ; preds = %17
  %24 = tail call i32 @H5open() #15
  %.pre = load i8, ptr @H5_libinit_g, align 1, !tbaa !18, !range !20
  %.pre39 = load i8, ptr @H5_libterm_g, align 1, !range !20
  br label %25

25:                                               ; preds = %17, %23
  %26 = phi i8 [ %20, %17 ], [ %.pre39, %23 ]
  %27 = phi i8 [ %18, %17 ], [ %.pre, %23 ]
  %28 = load i64, ptr @H5E_ERR_CLS_g, align 8, !tbaa !23
  %29 = trunc nuw i8 %27 to i1
  %30 = trunc nuw i8 %26 to i1
  %31 = select i1 %29, i1 true, i1 %30
  br i1 %31, label %34, label %32, !prof !22

32:                                               ; preds = %25
  %33 = tail call i32 @H5open() #15
  %.pre40 = load i8, ptr @H5_libinit_g, align 1, !tbaa !18, !range !20
  %.pre41 = load i8, ptr @H5_libterm_g, align 1, !range !20
  br label %34

34:                                               ; preds = %25, %32
  %35 = phi i8 [ %26, %25 ], [ %.pre41, %32 ]
  %36 = phi i8 [ %27, %25 ], [ %.pre40, %32 ]
  %37 = load i64, ptr @H5E_INTERNAL_g, align 8, !tbaa !23
  %38 = trunc nuw i8 %36 to i1
  %39 = trunc nuw i8 %35 to i1
  %40 = select i1 %38, i1 true, i1 %39
  br i1 %40, label %43, label %41, !prof !22

41:                                               ; preds = %34
  %42 = tail call i32 @H5open() #15
  br label %43

43:                                               ; preds = %34, %41
  %44 = load i64, ptr @H5E_BADVALUE_g, align 8, !tbaa !23
  %45 = tail call i32 (i64, ptr, ptr, i32, i64, i64, i64, ptr, ...) @H5Epush2(i64 noundef 0, ptr noundef nonnull @.str.1, ptr noundef nonnull @__func__.H5FD_multi_close, i32 noundef 1136, i64 noundef %28, i64 noundef %37, i64 noundef %44, ptr noundef nonnull @.str.33) #15
  br label %60

46:                                               ; preds = %.preheader, %56
  %indvars.iv35 = phi i64 [ 0, %.preheader ], [ %indvars.iv.next36, %56 ]
  %47 = getelementptr inbounds nuw [7 x i64], ptr %15, i64 0, i64 %indvars.iv35
  %48 = load i64, ptr %47, align 8, !tbaa !23
  %49 = icmp sgt i64 %48, -1
  br i1 %49, label %50, label %52

50:                                               ; preds = %46
  %51 = tail call i32 @H5Idec_ref(i64 noundef %48) #15
  br label %52

52:                                               ; preds = %50, %46
  %53 = getelementptr inbounds nuw [7 x ptr], ptr %16, i64 0, i64 %indvars.iv35
  %54 = load ptr, ptr %53, align 8, !tbaa !9
  %.not29 = icmp eq ptr %54, null
  br i1 %.not29, label %56, label %55

55:                                               ; preds = %52
  tail call void @free(ptr noundef nonnull %54) #15
  br label %56

56:                                               ; preds = %52, %55
  %indvars.iv.next36 = add nuw nsw i64 %indvars.iv35, 1
  %exitcond38.not = icmp eq i64 %indvars.iv.next36, 7
  br i1 %exitcond38.not, label %57, label %46, !llvm.loop !51

57:                                               ; preds = %56
  %58 = getelementptr inbounds nuw i8, ptr %0, i64 464
  %59 = load ptr, ptr %58, align 8, !tbaa !48
  tail call void @free(ptr noundef %59) #15
  tail call void @free(ptr noundef nonnull %0) #15
  br label %60

60:                                               ; preds = %57, %43
  %.025 = phi i32 [ -1, %43 ], [ 0, %57 ]
  ret i32 %.025
}